; Function Attrs: mustprogress uwtable
define hidden noundef i32 @_ZN5o3dgc12LoadUIntDataERNS_6VectorIlEERKNS_12BinaryStreamERm(ptr noundef nonnull align 8 captures(none) dereferenceable(24) %0, ptr noundef nonnull readonly align 8 captures(none) dereferenceable(28) %1, ptr noundef nonnull align 8 captures(none) dereferenceable(8) %2) local_unnamed_addr #0 {
_ZNK5o3dgc12BinaryStream15ReadUInt32ASCIIERm.exit.preheader:
  %.pre.i = load i64, ptr %2, align 8
  %3 = add i64 %.pre.i, 5
  br label %_ZNK5o3dgc12BinaryStream15ReadUInt32ASCIIERm.exit

_ZNK5o3dgc12BinaryStream15ReadUInt32ASCIIERm.exit: ; preds = %_ZNK5o3dgc12BinaryStream15ReadUInt32ASCIIERm.exit.preheader, %_ZNK5o3dgc12BinaryStream15ReadUInt32ASCIIERm.exit
  %4 = phi i64 [ %5, %_ZNK5o3dgc12BinaryStream15ReadUInt32ASCIIERm.exit ], [ %3, %_ZNK5o3dgc12BinaryStream15ReadUInt32ASCIIERm.exit.preheader ]
  %.011.i13 = phi i64 [ %14, %_ZNK5o3dgc12BinaryStream15ReadUInt32ASCIIERm.exit ], [ 0, %_ZNK5o3dgc12BinaryStream15ReadUInt32ASCIIERm.exit.preheader ]
  %.0710.i14 = phi i32 [ %13, %_ZNK5o3dgc12BinaryStream15ReadUInt32ASCIIERm.exit ], [ 0, %_ZNK5o3dgc12BinaryStream15ReadUInt32ASCIIERm.exit.preheader ]
  %.089.i15 = phi i64 [ %12, %_ZNK5o3dgc12BinaryStream15ReadUInt32ASCIIERm.exit ], [ 0, %_ZNK5o3dgc12BinaryStream15ReadUInt32ASCIIERm.exit.preheader ]
  %5 = add i64 %4, 1
  store i64 %5, ptr %2, align 8
  %6 = load ptr, ptr %1, align 8
  %7 = getelementptr inbounds nuw i8, ptr %6, i64 %4
  %8 = load i8, ptr %7, align 1
  %9 = zext i8 %8 to i32
  %10 = shl i32 %9, %.0710.i14
  %11 = sext i32 %10 to i64
  %12 = add i64 %.089.i15, %11
  %13 = add nuw nsw i32 %.0710.i14, 7
  %14 = add nuw nsw i64 %.011.i13, 1
  %exitcond.not.i16 = icmp eq i64 %14, 5
  br i1 %exitcond.not.i16, label %_ZNK5o3dgc12BinaryStream15ReadUInt32ASCIIERm.exit17, label %_ZNK5o3dgc12BinaryStream15ReadUInt32ASCIIERm.exit, !llvm.loop !21

_ZNK5o3dgc12BinaryStream15ReadUInt32ASCIIERm.exit17: ; preds = %_ZNK5o3dgc12BinaryStream15ReadUInt32ASCIIERm.exit
  %15 = getelementptr inbounds nuw i8, ptr %0, i64 8
  %16 = load i64, ptr %15, align 8
  %17 = icmp ugt i64 %12, %16
  br i1 %17, label %18, label %_ZN5o3dgc6VectorIlE8AllocateEm.exit

18:                                               ; preds = %_ZNK5o3dgc12BinaryStream15ReadUInt32ASCIIERm.exit17
  store i64 %12, ptr %15, align 8
  %19 = icmp ugt i64 %12, 2305843009213693951
  %20 = shl nuw i64 %12, 3
  %21 = select i1 %19, i64 -1, i64 %20
  %22 = tail call noalias noundef nonnull ptr @_Znam(i64 noundef %21) #8
  %23 = getelementptr inbounds nuw i8, ptr %0, i64 16
  %24 = load i64, ptr %23, align 8
  %.not.i = icmp eq i64 %24, 0
  br i1 %.not.i, label %_ZN5o3dgc6VectorIlE8AllocateEm.exit.thread, label %25

25:                                               ; preds = %18
  %26 = load ptr, ptr %0, align 8
  %27 = shl i64 %24, 3
  tail call void @llvm.memcpy.p0.p0.i64(ptr nonnull align 8 %22, ptr align 8 %26, i64 %27, i1 false)
  %28 = icmp eq ptr %26, null
  br i1 %28, label %_ZN5o3dgc6VectorIlE8AllocateEm.exit.thread, label %29

29:                                               ; preds = %25
  tail call void @_ZdaPv(ptr noundef nonnull %26) #9
  br label %_ZN5o3dgc6VectorIlE8AllocateEm.exit.thread

_ZN5o3dgc6VectorIlE8AllocateEm.exit.thread:       ; preds = %18, %25, %29
  store ptr %22, ptr %0, align 8
  %30 = getelementptr inbounds nuw i8, ptr %0, i64 16
  store i64 0, ptr %30, align 8
  br label %.lr.ph.preheader

_ZN5o3dgc6VectorIlE8AllocateEm.exit:              ; preds = %_ZNK5o3dgc12BinaryStream15ReadUInt32ASCIIERm.exit17
  %31 = getelementptr inbounds nuw i8, ptr %0, i64 16
  store i64 0, ptr %31, align 8
  %.not = icmp eq i64 %12, 0
  br i1 %.not, label %._crit_edge, label %.lr.ph.preheader

.lr.ph.preheader:                                 ; preds = %_ZN5o3dgc6VectorIlE8AllocateEm.exit.thread, %_ZN5o3dgc6VectorIlE8AllocateEm.exit
  %32 = phi ptr [ %30, %_ZN5o3dgc6VectorIlE8AllocateEm.exit.thread ], [ %31, %_ZN5o3dgc6VectorIlE8AllocateEm.exit ]
  br label %.lr.ph

._crit_edge:                                      ; preds = %_ZN5o3dgc6VectorIlE8PushBackERKl.exit, %_ZN5o3dgc6VectorIlE8AllocateEm.exit
  ret i32 0

.lr.ph:                                           ; preds = %.lr.ph.preheader, %_ZN5o3dgc6VectorIlE8PushBackERKl.exit
  %.024 = phi i64 [ %70, %_ZN5o3dgc6VectorIlE8PushBackERKl.exit ], [ 0, %.lr.ph.preheader ]
  %33 = load i64, ptr %2, align 8
  %34 = add i64 %33, 1
  store i64 %34, ptr %2, align 8
  %35 = load ptr, ptr %1, align 8
  %36 = getelementptr inbounds nuw i8, ptr %35, i64 %33
  %37 = load i8, ptr %36, align 1
  %38 = zext i8 %37 to i64
  %39 = icmp eq i8 %37, 127
  br i1 %39, label %.preheader.i, label %_ZNK5o3dgc12BinaryStream13ReadUIntASCIIERm.exit

.preheader.i:                                     ; preds = %.lr.ph, %.preheader.i
  %40 = phi i64 [ %41, %.preheader.i ], [ %34, %.lr.ph ]
  %.1.i = phi i64 [ %48, %.preheader.i ], [ 127, %.lr.ph ]
  %.0.i = phi i64 [ %49, %.preheader.i ], [ 0, %.lr.ph ]
  %41 = add i64 %40, 1
  store i64 %41, ptr %2, align 8
  %42 = load ptr, ptr %1, align 8
  %43 = getelementptr inbounds nuw i8, ptr %42, i64 %40
  %44 = load i8, ptr %43, align 1
  %45 = zext i8 %44 to i64
  %46 = lshr i64 %45, 1
  %47 = shl i64 %46, %.0.i
  %48 = add i64 %47, %.1.i
  %49 = add i64 %.0.i, 6
  %50 = and i64 %45, 1
  %.not.i18 = icmp eq i64 %50, 0
  br i1 %.not.i18, label %_ZNK5o3dgc12BinaryStream13ReadUIntASCIIERm.exit, label %.preheader.i, !llvm.loop !22

_ZNK5o3dgc12BinaryStream13ReadUIntASCIIERm.exit:  ; preds = %.preheader.i, %.lr.ph
  %.09.i = phi i64 [ %38, %.lr.ph ], [ %48, %.preheader.i ]
  %51 = load i64, ptr %32, align 8
  %52 = load i64, ptr %15, align 8
  %53 = icmp eq i64 %51, %52
  br i1 %53, label %54, label %._crit_edge.i

._crit_edge.i:                                    ; preds = %_ZNK5o3dgc12BinaryStream13ReadUIntASCIIERm.exit
  %.pre.i19 = load ptr, ptr %0, align 8
  br label %_ZN5o3dgc6VectorIlE8PushBackERKl.exit

54:                                               ; preds = %_ZNK5o3dgc12BinaryStream13ReadUIntASCIIERm.exit
  %55 = shl i64 %51, 1
  %spec.select.i = tail call i64 @llvm.umax.i64(i64 %55, i64 32)
  store i64 %spec.select.i, ptr %15, align 8
  %56 = icmp ugt i64 %55, 2305843009213693951
  %57 = shl i64 %spec.select.i, 3
  %58 = select i1 %56, i64 -1, i64 %57
  %59 = tail call noalias noundef nonnull ptr @_Znam(i64 noundef %58) #8
  %.not.i20 = icmp eq i64 %51, 0
  br i1 %.not.i20, label %65, label %60

60:                                               ; preds = %54
  %61 = load ptr, ptr %0, align 8
  %62 = shl i64 %51, 3
  tail call void @llvm.memcpy.p0.p0.i64(ptr nonnull align 8 %59, ptr align 8 %61, i64 %62, i1 false)
  %63 = icmp eq ptr %61, null
  br i1 %63, label %65, label %64

64:                                               ; preds = %60
  tail call void @_ZdaPv(ptr noundef nonnull %61) #9
  %.pre6.pre.i = load i64, ptr %32, align 8
  br label %65

65:                                               ; preds = %64, %60, %54
  %.pre6.i = phi i64 [ %51, %60 ], [ %.pre6.pre.i, %64 ], [ 0, %54 ]
  store ptr %59, ptr %0, align 8
  br label %_ZN5o3dgc6VectorIlE8PushBackERKl.exit

_ZN5o3dgc6VectorIlE8PushBackERKl.exit:            ; preds = %._crit_edge.i, %65
  %66 = phi i64 [ %51, %._crit_edge.i ], [ %.pre6.i, %65 ]
  %67 = phi ptr [ %.pre.i19, %._crit_edge.i ], [ %59, %65 ]
  %68 = add i64 %66, 1
  store i64 %68, ptr %32, align 8
  %69 = getelementptr inbounds nuw i64, ptr %67, i64 %66
  store i64 %.09.i, ptr %69, align 8
  %70 = add nuw i64 %.024, 1
  %exitcond.not = icmp eq i64 %70, %12
  br i1 %exitcond.not, label %._crit_edge, label %.lr.ph, !llvm.loop !23
}